; Function Attrs: mustprogress uwtable
define void @_ZNK4cvc58internal12SolverEngine21ensureWellFormedTermsERKSt6vectorINS0_12NodeTemplateILb1EEESaIS4_EERKNSt7__cxx1112basic_stringIcSt11char_traitsIcESaIcEEE(ptr noundef nonnull readnone align 8 captures(none) dereferenceable(296) %0, ptr noundef nonnull readonly align 8 captures(none) dereferenceable(24) %1, ptr noundef nonnull readnone align 8 captures(none) dereferenceable(32) %2) local_unnamed_addr #4 align 2 {
  %4 = tail call noundef zeroext i1 @_ZN4cvc58internal13Configuration16isAssertionBuildEv()
  br i1 %4, label %5, label %.loopexit

5:                                                ; preds = %3
  %6 = load ptr, ptr %1, align 8, !tbaa !529
  %7 = getelementptr inbounds nuw i8, ptr %1, i64 8
  %8 = load ptr, ptr %7, align 8, !tbaa !529
  %.not9 = icmp eq ptr %6, %8
  br i1 %.not9, label %.loopexit, label %.lr.ph

.lr.ph:                                           ; preds = %5, %.lr.ph
  %.sroa.06.010 = phi ptr [ %9, %.lr.ph ], [ %6, %5 ]
  tail call void @_ZNK4cvc58internal12SolverEngine20ensureWellFormedTermERKNS0_12NodeTemplateILb1EEERKNSt7__cxx1112basic_stringIcSt11char_traitsIcESaIcEEE(ptr nonnull align 8 poison, ptr noundef nonnull align 8 dereferenceable(8) %.sroa.06.010, ptr nonnull align 8 poison)
  %9 = getelementptr inbounds nuw i8, ptr %.sroa.06.010, i64 8
  %.not = icmp eq ptr %9, %8
  br i1 %.not, label %.loopexit, label %.lr.ph

.loopexit:                                        ; preds = %.lr.ph, %5, %3
  ret void
}